target datalayout = "e-m:e-p270:32:32-p271:32:32-p272:64:64-i64:64-i128:128-f80:128-n8:16:32:64-S128"
target triple = "x86_64-unknown-linux-gnu"

; Function Attrs: mustprogress nounwind uwtable
define linkonce_odr void @_ZN5arrow2io8ReadableD2Ev(ptr noundef nonnull align 8 dereferenceable(8) %this) unnamed_addr #1 comdat align 2 {
entry:
  %this.addr = alloca ptr, align 8
  store ptr %this, ptr %this.addr, align 8
  ret void
}

; Function Attrs: mustprogress nounwind uwtable
define void @_ZN5arrow2io16MemoryMappedFileD1Ev(ptr noundef nonnull align 8 dereferenceable(56) %this) unnamed_addr #1 align 2 {
entry:
  %this.addr = alloca ptr, align 8
  store ptr %this, ptr %this.addr, align 8
  %this1 = load ptr, ptr %this.addr, align 8
  call void @_ZN5arrow2io16MemoryMappedFileD2Ev(ptr noundef nonnull align 8 dereferenceable(56) %this1, ptr noundef @_ZTTN5arrow2io16MemoryMappedFileE) #14
  call void @_ZN5arrow2io8ReadableD2Ev(ptr noundef nonnull align 8 dereferenceable(8) %this1) #14
  %0 = getelementptr inbounds i8, ptr %this1, i64 56
  call void @_ZN5arrow2io13FileInterfaceD2Ev(ptr noundef nonnull align 8 dereferenceable(28) %0) #14
  ret void
}

; Function Attrs: mustprogress nounwind uwtable
define void @_ZN5arrow2io16MemoryMappedFileD0Ev(ptr noundef nonnull align 8 dereferenceable(56) %this) unnamed_addr #1 align 2 {
entry:
  %this.addr = alloca ptr, align 8
  store ptr %this, ptr %this.addr, align 8
  %this1 = load ptr, ptr %this.addr, align 8
  call void @_ZN5arrow2io16MemoryMappedFileD1Ev(ptr noundef nonnull align 8 dereferenceable(56) %this1) #14
  call void @_ZdlPv(ptr noundef %this1) #16
  ret void
}

; Function Attrs: nounwind uwtable
define void @_ZThn8_N5arrow2io16MemoryMappedFileD0Ev(ptr noundef %this) unnamed_addr #7 align 2 {
entry:
  %this.addr = alloca ptr, align 8
  store ptr %this, ptr %this.addr, align 8
  %this1 = load ptr, ptr %this.addr, align 8
  %0 = getelementptr inbounds i8, ptr %this1, i64 -8
  tail call void @_ZN5arrow2io16MemoryMappedFileD0Ev(ptr noundef nonnull align 8 dereferenceable(56) %0) #14
  ret void
}