; Function Attrs: nounwind uwtable
define void @_ZThn8_N5arrow2io16MemoryMappedFileD0Ev(ptr noundef %this) unnamed_addr #7 align 2 {
entry:
  %0 = getelementptr inbounds i8, ptr %this, i64 -8
  tail call void @_ZN5arrow2io16MemoryMappedFileD2Ev(ptr noundef nonnull align 8 dereferenceable(56) %0, ptr noundef nonnull @_ZTTN5arrow2io16MemoryMappedFileE) #22
  %1 = getelementptr inbounds i8, ptr %this, i64 48
  tail call void @_ZN5arrow2io13FileInterfaceD2Ev(ptr noundef nonnull align 8 dereferenceable(28) %1) #22
  tail call void @_ZdlPv(ptr noundef nonnull %0) #24
  ret void
}